; Function Attrs: mustprogress uwtable
define hidden noundef zeroext i1 @_ZN4lean6is_geqERKNS_5levelES2_(ptr noundef nonnull readonly align 8 captures(none) dereferenceable(8) %0, ptr noundef nonnull readonly align 8 captures(none) dereferenceable(8) %1) local_unnamed_addr #0 personality ptr @__gxx_personality_v0 {
  %3 = alloca %"class.lean::level", align 8
  %4 = alloca %"class.lean::level", align 8
  call void @_ZN4lean9normalizeERKNS_5levelE(ptr dead_on_unwind nonnull writable sret(%"class.lean::level") align 8 %3, ptr noundef nonnull align 8 dereferenceable(8) %0)
  invoke void @_ZN4lean9normalizeERKNS_5levelE(ptr dead_on_unwind nonnull writable sret(%"class.lean::level") align 8 %4, ptr noundef nonnull align 8 dereferenceable(8) %1)
          to label %5 unwind label %34

5:                                                ; preds = %2
  %6 = invoke noundef zeroext i1 @_ZN4lean11is_geq_coreENS_5levelES0_(ptr noundef nonnull %3, ptr noundef nonnull %4)
          to label %7 unwind label %36

7:                                                ; preds = %5
  %8 = load ptr, ptr %4, align 8, !tbaa !3
  %9 = ptrtoint ptr %8 to i64
  %10 = and i64 %9, 1
  %.not.i.i = icmp eq i64 %10, 0
  br i1 %.not.i.i, label %11, label %_ZN4lean10object_refD2Ev.exit

11:                                               ; preds = %7
  %12 = load i32, ptr %8, align 4, !tbaa !8
  %13 = icmp sgt i32 %12, 1
  br i1 %13, label %14, label %16, !prof !11

14:                                               ; preds = %11
  %15 = add nsw i32 %12, -1
  store i32 %15, ptr %8, align 4, !tbaa !8
  br label %_ZN4lean10object_refD2Ev.exit

16:                                               ; preds = %11
  %.not.i.i.i = icmp eq i32 %12, 0
  br i1 %.not.i.i.i, label %_ZN4lean10object_refD2Ev.exit, label %17

17:                                               ; preds = %16
  invoke void @lean_dec_ref_cold(ptr noundef nonnull %8)
          to label %_ZN4lean10object_refD2Ev.exit unwind label %18

18:                                               ; preds = %17
  %19 = landingpad { ptr, i32 }
          catch ptr null
  %20 = extractvalue { ptr, i32 } %19, 0
  call void @__clang_call_terminate(ptr %20) #21
  unreachable

_ZN4lean10object_refD2Ev.exit:                    ; preds = %7, %14, %16, %17
  %21 = load ptr, ptr %3, align 8, !tbaa !3
  %22 = ptrtoint ptr %21 to i64
  %23 = and i64 %22, 1
  %.not.i.i5 = icmp eq i64 %23, 0
  br i1 %.not.i.i5, label %24, label %_ZN4lean10object_refD2Ev.exit7

24:                                               ; preds = %_ZN4lean10object_refD2Ev.exit
  %25 = load i32, ptr %21, align 4, !tbaa !8
  %26 = icmp sgt i32 %25, 1
  br i1 %26, label %27, label %29, !prof !11

27:                                               ; preds = %24
  %28 = add nsw i32 %25, -1
  store i32 %28, ptr %21, align 4, !tbaa !8
  br label %_ZN4lean10object_refD2Ev.exit7

29:                                               ; preds = %24
  %.not.i.i.i6 = icmp eq i32 %25, 0
  br i1 %.not.i.i.i6, label %_ZN4lean10object_refD2Ev.exit7, label %30

30:                                               ; preds = %29
  invoke void @lean_dec_ref_cold(ptr noundef nonnull %21)
          to label %_ZN4lean10object_refD2Ev.exit7 unwind label %31

31:                                               ; preds = %30
  %32 = landingpad { ptr, i32 }
          catch ptr null
  %33 = extractvalue { ptr, i32 } %32, 0
  call void @__clang_call_terminate(ptr %33) #21
  unreachable

_ZN4lean10object_refD2Ev.exit7:                   ; preds = %_ZN4lean10object_refD2Ev.exit, %27, %29, %30
  ret i1 %6

34:                                               ; preds = %2
  %35 = landingpad { ptr, i32 }
          cleanup
  br label %38

36:                                               ; preds = %5
  %37 = landingpad { ptr, i32 }
          cleanup
  call void @_ZN4lean10object_refD2Ev(ptr noundef nonnull align 8 dereferenceable(8) %4) #19
  br label %38

38:                                               ; preds = %36, %34
  %.pn = phi { ptr, i32 } [ %37, %36 ], [ %35, %34 ]
  call void @_ZN4lean10object_refD2Ev(ptr noundef nonnull align 8 dereferenceable(8) %3) #19
  resume { ptr, i32 } %.pn
}